	.file	"phone_book.cpp"
	.text
	.section	.text._ZN6PersonC2Ei,"axG",@progbits,_ZN6PersonC5Ei,comdat
	.align 2
	.weak	_ZN6PersonC2Ei
	.type	_ZN6PersonC2Ei, @function
_ZN6PersonC2Ei:
.LFB1:
	.cfi_startproc
	endbr64
	pushq	%rbp
	.cfi_def_cfa_offset 16
	.cfi_offset 6, -16
	movq	%rsp, %rbp
	.cfi_def_cfa_register 6
	movq	%rdi, -8(%rbp)
	movl	%esi, -12(%rbp)
	movq	-8(%rbp), %rax
	movl	-12(%rbp), %edx
	movl	%edx, (%rax)
	nop
	popq	%rbp
	.cfi_def_cfa 7, 8
	ret
	.cfi_endproc
.LFE1:
	.size	_ZN6PersonC2Ei, .-_ZN6PersonC2Ei
	.weak	_ZN6PersonC1Ei
	.set	_ZN6PersonC1Ei,_ZN6PersonC2Ei
	.section	.text._ZN6Person9makeOlderEv,"axG",@progbits,_ZN6Person9makeOlderEv,comdat
	.align 2
	.weak	_ZN6Person9makeOlderEv
	.type	_ZN6Person9makeOlderEv, @function
_ZN6Person9makeOlderEv:
.LFB3:
	.cfi_startproc
	endbr64
	pushq	%rbp
	.cfi_def_cfa_offset 16
	.cfi_offset 6, -16
	movq	%rsp, %rbp
	.cfi_def_cfa_register 6
	movq	%rdi, -8(%rbp)
	movq	-8(%rbp), %rax
	movl	(%rax), %eax
	leal	1(%rax), %edx
	movq	-8(%rbp), %rax
	movl	%edx, (%rax)
	nop
	popq	%rbp
	.cfi_def_cfa 7, 8
	ret
	.cfi_endproc
.LFE3:
	.size	_ZN6Person9makeOlderEv, .-_ZN6Person9makeOlderEv
	.text
	.globl	main
	.type	main, @function
main:
.LFB4:
	.cfi_startproc
	endbr64
	pushq	%rbp
	.cfi_def_cfa_offset 16
	.cfi_offset 6, -16
	movq	%rsp, %rbp
	.cfi_def_cfa_register 6
	subq	$16, %rsp
	movq	%fs:40, %rax
	movq	%rax, -8(%rbp)
	xorl	%eax, %eax
	leaq	-12(%rbp), %rax
	movl	$10, %esi
	movq	%rax, %rdi
	call	_ZN6PersonC1Ei
	leaq	-12(%rbp), %rax
	movq	%rax, %rdi
	call	_ZN6Person9makeOlderEv
	movl	$0, %eax
	movq	-8(%rbp), %rdx
	subq	%fs:40, %rdx
	je	.L5
	call	__stack_chk_fail@PLT
.L5:
	leave
	.cfi_def_cfa 7, 8
	ret
	.cfi_endproc
.LFE4:
	.size	main, .-main
	.ident	"GCC: (Ubuntu 11.4.0-1ubuntu1~22.04) 11.4.0"
	.section	.note.GNU-stack,"",@progbits
	.section	.note.gnu.property,"a"
	.align 8
	.long	1f - 0f
	.long	4f - 1f
	.long	5
0:
	.string	"GNU"
1:
	.align 8
	.long	0xc0000002
	.long	3f - 2f
2:
	.long	0x3
3:
	.align 8
4:
